target datalayout = "e-m:e-p270:32:32-p271:32:32-p272:64:64-i64:64-i128:128-f80:128-n8:16:32:64-S128"
target triple = "x86_64-pc-linux-gnu"

%struct.strbuf = type { i64, i64, ptr }

@.str.28 = private unnamed_addr constant [9 x i8] c"cmd_mode\00", align 1
@__const.fn_command_mode_fl.buf_payload = private unnamed_addr constant %struct.strbuf { i64 0, i64 0, ptr @strbuf_slopbuf }, align 8

; Function Attrs: inlinehint nounwind uwtable
define internal void @strbuf_addstr(ptr noundef %0, ptr noundef %1) #4 {
  %3 = alloca ptr, align 8
  %4 = alloca ptr, align 8
  store ptr %0, ptr %3, align 8, !tbaa !81
  store ptr %1, ptr %4, align 8, !tbaa !8
  %5 = load ptr, ptr %3, align 8, !tbaa !81
  %6 = load ptr, ptr %4, align 8, !tbaa !8
  %7 = load ptr, ptr %4, align 8, !tbaa !8
  %8 = call i64 @strlen(ptr noundef %7) #10
  call void @strbuf_add(ptr noundef %5, ptr noundef %6, i64 noundef %8)
  ret void
}

; Function Attrs: nounwind uwtable
define internal void @fn_command_mode_fl(ptr noundef %0, i32 noundef %1, ptr noundef %2) #0 {
  %4 = alloca ptr, align 8
  %5 = alloca i32, align 4
  %6 = alloca ptr, align 8
  %7 = alloca ptr, align 8
  %8 = alloca %struct.strbuf, align 8
  store ptr %0, ptr %4, align 8, !tbaa !8
  store i32 %1, ptr %5, align 4, !tbaa !4
  store ptr %2, ptr %6, align 8, !tbaa !8
  call void @llvm.lifetime.start.p0(i64 8, ptr %7) #9
  store ptr @.str.28, ptr %7, align 8, !tbaa !8
  call void @llvm.lifetime.start.p0(i64 24, ptr %8) #9
  call void @llvm.memcpy.p0.p0.i64(ptr align 8 %8, ptr align 8 @__const.fn_command_mode_fl.buf_payload, i64 24, i1 false)
  %9 = load ptr, ptr %6, align 8, !tbaa !8
  call void @strbuf_addstr(ptr noundef %8, ptr noundef %9)
  %10 = load ptr, ptr %4, align 8, !tbaa !8
  %11 = load i32, ptr %5, align 4, !tbaa !4
  %12 = load ptr, ptr %7, align 8, !tbaa !8
  call void @perf_io_write_fl(ptr noundef %10, i32 noundef %11, ptr noundef %12, ptr noundef null, ptr noundef null, ptr noundef null, ptr noundef null, ptr noundef %8)
  call void @strbuf_release(ptr noundef %8)
  call void @llvm.lifetime.end.p0(i64 24, ptr %8) #9
  call void @llvm.lifetime.end.p0(i64 8, ptr %7) #9
  ret void
}